target datalayout = "e-m:e-p270:32:32-p271:32:32-p272:64:64-i64:64-i128:128-f80:128-n8:16:32:64-S128"
target triple = "x86_64-pc-linux-gnu"

%struct.H5FL_blk_head_t = type { i8, i32, i32, i64, ptr, ptr }
%struct.H5FL_reg_head_t = type { i8, i32, i32, ptr, i64, ptr }
%struct.H5FA_dbk_page_t = type { %struct.H5C_cache_entry_t, ptr, ptr, ptr, i64, i64, i64 }
%struct.H5C_cache_entry_t = type { ptr, i64, i64, ptr, i8, ptr, i8, i8, i8, i8, i32, i8, i8, i8, i8, i8, i32, ptr, i32, i32, i32, i32, i32, i8, i8, ptr, ptr, ptr, ptr, ptr, ptr, i8, i32, i8, i64, ptr, i64, i64, i32, i8, i32, i32, i8, ptr, ptr, ptr }
%struct.H5FA_hdr_t = type { %struct.H5C_cache_entry_t, %struct.H5FA_create_t, i64, %struct.H5FA_stat_t, i64, i64, i64, ptr, i64, i8, i64, i64, ptr, i8, ptr, ptr }
%struct.H5FA_create_t = type { ptr, i8, i8, i64 }
%struct.H5FA_stat_t = type { i64, i64, i64 }
%struct.H5FA_class_t = type { i32, ptr, i64, ptr, ptr, ptr, ptr, ptr, ptr, ptr, ptr }

@H5_page_elmts_blk_free_list = global %struct.H5FL_blk_head_t { i8 0, i32 0, i32 0, i64 0, ptr @.str, ptr null }, align 8
@H5_H5FA_dblk_page_t_reg_free_list = internal global %struct.H5FL_reg_head_t { i8 0, i32 0, i32 0, ptr @.str.13, i64 296, ptr null }, align 8
@.str.1 = private unnamed_addr constant [106 x i8] c"generated/home/dtcxzyw/WorkSpace/Projects/compilers/llvm-opt-benchmark/bench/hdf5/hdf5/src/H5FAdblkpage.c\00", align 1
@__func__.H5FA__dblk_page_alloc = private unnamed_addr constant [22 x i8] c"H5FA__dblk_page_alloc\00", align 1
@H5E_FARRAY_g = external global i64, align 8
@H5E_CANTALLOC_g = external global i64, align 8
@.str.2 = private unnamed_addr constant [57 x i8] c"memory allocation failed for fixed array data block page\00", align 1
@H5E_CANTINC_g = external global i64, align 8
@.str.3 = private unnamed_addr constant [55 x i8] c"can't increment reference count on shared array header\00", align 1
@.str.4 = private unnamed_addr constant [60 x i8] c"memory allocation failed for data block page element buffer\00", align 1
@H5E_CANTFREE_g = external global i64, align 8
@.str.5 = private unnamed_addr constant [46 x i8] c"unable to destroy fixed array data block page\00", align 1
@__func__.H5FA__dblk_page_dest = private unnamed_addr constant [21 x i8] c"H5FA__dblk_page_dest\00", align 1
@H5E_CANTDEC_g = external global i64, align 8
@.str.12 = private unnamed_addr constant [55 x i8] c"can't decrement reference count on shared array header\00", align 1

; Function Attrs: nounwind uwtable
define i32 @H5FA__dblk_page_dest(ptr noundef %0) #0 {
  %2 = alloca ptr, align 8
  %3 = alloca i32, align 4
  %4 = alloca i8, align 1
  store ptr %0, ptr %2, align 8
  store i32 0, ptr %3, align 4
  store i8 0, ptr %4, align 1
  %5 = load ptr, ptr %2, align 8
  %6 = getelementptr inbounds %struct.H5FA_dbk_page_t, ptr %5, i32 0, i32 2
  %7 = load ptr, ptr %6, align 8
  %8 = icmp ne ptr %7, null
  br i1 %8, label %9, label %45

9:                                                ; preds = %1
  %10 = load ptr, ptr %2, align 8
  %11 = getelementptr inbounds %struct.H5FA_dbk_page_t, ptr %10, i32 0, i32 1
  %12 = load ptr, ptr %11, align 8
  %13 = icmp ne ptr %12, null
  br i1 %13, label %14, label %21

14:                                               ; preds = %9
  %15 = load ptr, ptr %2, align 8
  %16 = getelementptr inbounds %struct.H5FA_dbk_page_t, ptr %15, i32 0, i32 1
  %17 = load ptr, ptr %16, align 8
  %18 = call ptr @H5FL_blk_free(ptr noundef @H5_page_elmts_blk_free_list, ptr noundef %17)
  %19 = load ptr, ptr %2, align 8
  %20 = getelementptr inbounds %struct.H5FA_dbk_page_t, ptr %19, i32 0, i32 1
  store ptr %18, ptr %20, align 8
  br label %21

21:                                               ; preds = %14, %9
  %22 = load ptr, ptr %2, align 8
  %23 = getelementptr inbounds %struct.H5FA_dbk_page_t, ptr %22, i32 0, i32 2
  %24 = load ptr, ptr %23, align 8
  %25 = call i32 @H5FA__hdr_decr(ptr noundef %24)
  %26 = icmp slt i32 %25, 0
  br i1 %26, label %27, label %42

27:                                               ; preds = %21
  br label %28

28:                                               ; preds = %27
  br label %29

29:                                               ; preds = %28
  br label %30

30:                                               ; preds = %29
  %31 = load i64, ptr @H5E_FARRAY_g, align 8
  %32 = load i64, ptr @H5E_CANTDEC_g, align 8
  %33 = call i32 (ptr, ptr, i32, i64, i64, ptr, ...) @H5E_printf_stack(ptr noundef @.str.1, ptr noundef @__func__.H5FA__dblk_page_dest, i32 noundef 329, i64 noundef %31, i64 noundef %32, ptr noundef @.str.12)
  br label %34

34:                                               ; preds = %30
  store i8 1, ptr %4, align 1
  %35 = load i8, ptr %4, align 1
  %36 = trunc i8 %35 to i1
  %37 = zext i1 %36 to i8
  store i8 %37, ptr %4, align 1
  br label %38

38:                                               ; preds = %34
  br label %39

39:                                               ; preds = %38
  store i32 -1, ptr %3, align 4
  br label %48

40:                                               ; No predecessors!
  br label %41

41:                                               ; preds = %40
  br label %42

42:                                               ; preds = %41, %21
  %43 = load ptr, ptr %2, align 8
  %44 = getelementptr inbounds %struct.H5FA_dbk_page_t, ptr %43, i32 0, i32 2
  store ptr null, ptr %44, align 8
  br label %45

45:                                               ; preds = %42, %1
  %46 = load ptr, ptr %2, align 8
  %47 = call ptr @H5FL_reg_free(ptr noundef @H5_H5FA_dblk_page_t_reg_free_list, ptr noundef %46)
  store ptr %47, ptr %2, align 8
  br label %48

48:                                               ; preds = %45, %39
  %49 = load i32, ptr %3, align 4
  ret i32 %49
}

; Function Attrs: nounwind uwtable
define ptr @H5FA__dblk_page_alloc(ptr noundef %0, i64 noundef %1) #0 {
  %3 = alloca ptr, align 8
  %4 = alloca i64, align 8
  %5 = alloca ptr, align 8
  %6 = alloca ptr, align 8
  %7 = alloca i8, align 1
  store ptr %0, ptr %3, align 8
  store i64 %1, ptr %4, align 8
  store ptr null, ptr %5, align 8
  store ptr null, ptr %6, align 8
  store i8 0, ptr %7, align 1
  %8 = call noalias ptr @H5FL_reg_calloc(ptr noundef @H5_H5FA_dblk_page_t_reg_free_list)
  store ptr %8, ptr %5, align 8
  %9 = icmp eq ptr null, %8
  br i1 %9, label %10, label %25

10:                                               ; preds = %2
  br label %11

11:                                               ; preds = %10
  br label %12

12:                                               ; preds = %11
  br label %13

13:                                               ; preds = %12
  %14 = load i64, ptr @H5E_FARRAY_g, align 8
  %15 = load i64, ptr @H5E_CANTALLOC_g, align 8
  %16 = call i32 (ptr, ptr, i32, i64, i64, ptr, ...) @H5E_printf_stack(ptr noundef @.str.1, ptr noundef @__func__.H5FA__dblk_page_alloc, i32 noundef 97, i64 noundef %14, i64 noundef %15, ptr noundef @.str.2)
  br label %17

17:                                               ; preds = %13
  store i8 1, ptr %7, align 1
  %18 = load i8, ptr %7, align 1
  %19 = trunc i8 %18 to i1
  %20 = zext i1 %19 to i8
  store i8 %20, ptr %7, align 1
  br label %21

21:                                               ; preds = %17
  br label %22

22:                                               ; preds = %21
  store ptr null, ptr %6, align 8
  br label %80

23:                                               ; No predecessors!
  br label %24

24:                                               ; preds = %23
  br label %25

25:                                               ; preds = %24, %2
  %26 = load ptr, ptr %3, align 8
  %27 = call i32 @H5FA__hdr_incr(ptr noundef %26)
  %28 = icmp slt i32 %27, 0
  br i1 %28, label %29, label %44

29:                                               ; preds = %25
  br label %30

30:                                               ; preds = %29
  br label %31

31:                                               ; preds = %30
  br label %32

32:                                               ; preds = %31
  %33 = load i64, ptr @H5E_FARRAY_g, align 8
  %34 = load i64, ptr @H5E_CANTINC_g, align 8
  %35 = call i32 (ptr, ptr, i32, i64, i64, ptr, ...) @H5E_printf_stack(ptr noundef @.str.1, ptr noundef @__func__.H5FA__dblk_page_alloc, i32 noundef 101, i64 noundef %33, i64 noundef %34, ptr noundef @.str.3)
  br label %36

36:                                               ; preds = %32
  store i8 1, ptr %7, align 1
  %37 = load i8, ptr %7, align 1
  %38 = trunc i8 %37 to i1
  %39 = zext i1 %38 to i8
  store i8 %39, ptr %7, align 1
  br label %40

40:                                               ; preds = %36
  br label %41

41:                                               ; preds = %40
  store ptr null, ptr %6, align 8
  br label %80

42:                                               ; No predecessors!
  br label %43

43:                                               ; preds = %42
  br label %44

44:                                               ; preds = %43, %25
  %45 = load ptr, ptr %3, align 8
  %46 = load ptr, ptr %5, align 8
  %47 = getelementptr inbounds %struct.H5FA_dbk_page_t, ptr %46, i32 0, i32 2
  store ptr %45, ptr %47, align 8
  %48 = load i64, ptr %4, align 8
  %49 = load ptr, ptr %5, align 8
  %50 = getelementptr inbounds %struct.H5FA_dbk_page_t, ptr %49, i32 0, i32 6
  store i64 %48, ptr %50, align 8
  %51 = load i64, ptr %4, align 8
  %52 = load ptr, ptr %3, align 8
  %53 = getelementptr inbounds %struct.H5FA_hdr_t, ptr %52, i32 0, i32 1
  %54 = getelementptr inbounds %struct.H5FA_create_t, ptr %53, i32 0, i32 0
  %55 = load ptr, ptr %54, align 8
  %56 = getelementptr inbounds %struct.H5FA_class_t, ptr %55, i32 0, i32 2
  %57 = load i64, ptr %56, align 8
  %58 = mul i64 %51, %57
  %59 = call noalias ptr @H5FL_blk_malloc(ptr noundef @H5_page_elmts_blk_free_list, i64 noundef %58)
  %60 = load ptr, ptr %5, align 8
  %61 = getelementptr inbounds %struct.H5FA_dbk_page_t, ptr %60, i32 0, i32 1
  store ptr %59, ptr %61, align 8
  %62 = icmp eq ptr null, %59
  br i1 %62, label %63, label %78

63:                                               ; preds = %44
  br label %64

64:                                               ; preds = %63
  br label %65

65:                                               ; preds = %64
  br label %66

66:                                               ; preds = %65
  %67 = load i64, ptr @H5E_FARRAY_g, align 8
  %68 = load i64, ptr @H5E_CANTALLOC_g, align 8
  %69 = call i32 (ptr, ptr, i32, i64, i64, ptr, ...) @H5E_printf_stack(ptr noundef @.str.1, ptr noundef @__func__.H5FA__dblk_page_alloc, i32 noundef 110, i64 noundef %67, i64 noundef %68, ptr noundef @.str.4)
  br label %70

70:                                               ; preds = %66
  store i8 1, ptr %7, align 1
  %71 = load i8, ptr %7, align 1
  %72 = trunc i8 %71 to i1
  %73 = zext i1 %72 to i8
  store i8 %73, ptr %7, align 1
  br label %74

74:                                               ; preds = %70
  br label %75

75:                                               ; preds = %74
  store ptr null, ptr %6, align 8
  br label %80

76:                                               ; No predecessors!
  br label %77

77:                                               ; preds = %76
  br label %78

78:                                               ; preds = %77, %44
  %79 = load ptr, ptr %5, align 8
  store ptr %79, ptr %6, align 8
  br label %80

80:                                               ; preds = %78, %75, %41, %22
  %81 = load ptr, ptr %6, align 8
  %82 = icmp ne ptr %81, null
  br i1 %82, label %104, label %83

83:                                               ; preds = %80
  %84 = load ptr, ptr %5, align 8
  %85 = icmp ne ptr %84, null
  br i1 %85, label %86, label %103

86:                                               ; preds = %83
  %87 = load ptr, ptr %5, align 8
  %88 = call i32 @H5FA__dblk_page_dest(ptr noundef %87)
  %89 = icmp slt i32 %88, 0
  br i1 %89, label %90, label %103

90:                                               ; preds = %86
  br label %91

91:                                               ; preds = %90
  br label %92

92:                                               ; preds = %91
  br label %93

93:                                               ; preds = %92
  %94 = load i64, ptr @H5E_FARRAY_g, align 8
  %95 = load i64, ptr @H5E_CANTFREE_g, align 8
  %96 = call i32 (ptr, ptr, i32, i64, i64, ptr, ...) @H5E_printf_stack(ptr noundef @.str.1, ptr noundef @__func__.H5FA__dblk_page_alloc, i32 noundef 119, i64 noundef %94, i64 noundef %95, ptr noundef @.str.5)
  br label %97

97:                                               ; preds = %93
  store i8 1, ptr %7, align 1
  %98 = load i8, ptr %7, align 1
  %99 = trunc i8 %98 to i1
  %100 = zext i1 %99 to i8
  store i8 %100, ptr %7, align 1
  br label %101

101:                                              ; preds = %97
  store ptr null, ptr %6, align 8
  br label %102

102:                                              ; preds = %101
  br label %103

103:                                              ; preds = %102, %86, %83
  br label %104

104:                                              ; preds = %103, %80
  %105 = load ptr, ptr %6, align 8
  ret ptr %105
}