; Function Attrs: nounwind uwtable
define ptr @H5FA__dblk_page_alloc(ptr noundef %0, i64 noundef %1) local_unnamed_addr #0 {
  %3 = tail call noalias ptr @H5FL_reg_calloc(ptr noundef nonnull @H5_H5FA_dblk_page_t_reg_free_list) #2
  %4 = icmp eq ptr %3, null
  br i1 %4, label %5, label %9

5:                                                ; preds = %2
  %6 = load i64, ptr @H5E_FARRAY_g, align 8
  %7 = load i64, ptr @H5E_CANTALLOC_g, align 8
  %8 = tail call i32 (ptr, ptr, i32, i64, i64, ptr, ...) @H5E_printf_stack(ptr noundef nonnull @.str.1, ptr noundef nonnull @__func__.H5FA__dblk_page_alloc, i32 noundef 97, i64 noundef %6, i64 noundef %7, ptr noundef nonnull @.str.2) #2
  br label %.thread

9:                                                ; preds = %2
  %10 = tail call i32 @H5FA__hdr_incr(ptr noundef %0) #2
  %11 = icmp slt i32 %10, 0
  br i1 %11, label %26, label %12

12:                                               ; preds = %9
  %13 = getelementptr inbounds i8, ptr %3, i64 256
  store ptr %0, ptr %13, align 8
  %14 = getelementptr inbounds i8, ptr %3, i64 288
  store i64 %1, ptr %14, align 8
  %15 = getelementptr inbounds i8, ptr %0, i64 248
  %16 = load ptr, ptr %15, align 8
  %17 = getelementptr inbounds i8, ptr %16, i64 16
  %18 = load i64, ptr %17, align 8
  %19 = mul i64 %18, %1
  %20 = tail call noalias ptr @H5FL_blk_malloc(ptr noundef nonnull @H5_page_elmts_blk_free_list, i64 noundef %19) #2
  %21 = getelementptr inbounds i8, ptr %3, i64 248
  store ptr %20, ptr %21, align 8
  %22 = icmp eq ptr %20, null
  br i1 %22, label %.thread22, label %.thread

.thread22:                                        ; preds = %12
  %23 = load i64, ptr @H5E_FARRAY_g, align 8
  %24 = load i64, ptr @H5E_CANTALLOC_g, align 8
  %25 = tail call i32 (ptr, ptr, i32, i64, i64, ptr, ...) @H5E_printf_stack(ptr noundef nonnull @.str.1, ptr noundef nonnull @__func__.H5FA__dblk_page_alloc, i32 noundef 110, i64 noundef %23, i64 noundef %24, ptr noundef nonnull @.str.4) #2
  br label %30

26:                                               ; preds = %9
  %27 = load i64, ptr @H5E_FARRAY_g, align 8
  %28 = load i64, ptr @H5E_CANTINC_g, align 8
  %29 = tail call i32 (ptr, ptr, i32, i64, i64, ptr, ...) @H5E_printf_stack(ptr noundef nonnull @.str.1, ptr noundef nonnull @__func__.H5FA__dblk_page_alloc, i32 noundef 101, i64 noundef %27, i64 noundef %28, ptr noundef nonnull @.str.3) #2
  %.phi.trans.insert = getelementptr inbounds i8, ptr %3, i64 256
  %.pre = load ptr, ptr %.phi.trans.insert, align 8
  %.not.i = icmp eq ptr %.pre, null
  br i1 %.not.i, label %H5FA__dblk_page_dest.exit, label %30

30:                                               ; preds = %.thread22, %26
  %31 = phi ptr [ %0, %.thread22 ], [ %.pre, %26 ]
  %32 = getelementptr inbounds i8, ptr %3, i64 256
  %33 = getelementptr inbounds i8, ptr %3, i64 248
  %34 = load ptr, ptr %33, align 8
  %.not9.i = icmp eq ptr %34, null
  br i1 %.not9.i, label %37, label %35

35:                                               ; preds = %30
  %36 = tail call ptr @H5FL_blk_free(ptr noundef nonnull @H5_page_elmts_blk_free_list, ptr noundef nonnull %34) #2
  store ptr %36, ptr %33, align 8
  %.pre.i = load ptr, ptr %32, align 8
  br label %37

37:                                               ; preds = %35, %30
  %38 = phi ptr [ %.pre.i, %35 ], [ %31, %30 ]
  %39 = tail call i32 @H5FA__hdr_decr(ptr noundef %38) #2
  %40 = icmp slt i32 %39, 0
  br i1 %40, label %43, label %41

41:                                               ; preds = %37
  store ptr null, ptr %32, align 8
  br label %H5FA__dblk_page_dest.exit

H5FA__dblk_page_dest.exit:                        ; preds = %26, %41
  %42 = tail call ptr @H5FL_reg_free(ptr noundef nonnull @H5_H5FA_dblk_page_t_reg_free_list, ptr noundef nonnull %3) #2
  br label %.thread

43:                                               ; preds = %37
  %44 = load i64, ptr @H5E_FARRAY_g, align 8
  %45 = load i64, ptr @H5E_CANTDEC_g, align 8
  %46 = tail call i32 (ptr, ptr, i32, i64, i64, ptr, ...) @H5E_printf_stack(ptr noundef nonnull @.str.1, ptr noundef nonnull @__func__.H5FA__dblk_page_dest, i32 noundef 329, i64 noundef %44, i64 noundef %45, ptr noundef nonnull @.str.12) #2
  %47 = load i64, ptr @H5E_FARRAY_g, align 8
  %48 = load i64, ptr @H5E_CANTFREE_g, align 8
  %49 = tail call i32 (ptr, ptr, i32, i64, i64, ptr, ...) @H5E_printf_stack(ptr noundef nonnull @.str.1, ptr noundef nonnull @__func__.H5FA__dblk_page_alloc, i32 noundef 119, i64 noundef %47, i64 noundef %48, ptr noundef nonnull @.str.5) #2
  br label %.thread

.thread:                                          ; preds = %5, %12, %H5FA__dblk_page_dest.exit, %43
  %.1 = phi ptr [ null, %43 ], [ null, %H5FA__dblk_page_dest.exit ], [ %3, %12 ], [ null, %5 ]
  ret ptr %.1
}